target datalayout = "e-m:e-p270:32:32-p271:32:32-p272:64:64-i64:64-i128:128-f80:128-n8:16:32:64-S128"
target triple = "x86_64-pc-linux-gnu"

%struct.FunctionCallInfoBaseData = type { ptr, ptr, ptr, i32, i8, i16, [0 x %struct.NullableDatum] }
%struct.NullableDatum = type { i64, i8 }
%struct.SignTSVector = type { i32, i32, [0 x i8] }
%struct.anon = type { i32, [0 x i8] }
%struct.GistTsVectorOptions = type { i32, i32 }

; Function Attrs: inlinehint nounwind uwtable
define internal i64 @PointerGetDatum(ptr noundef %0) #4 {
  %2 = alloca ptr, align 8
  store ptr %0, ptr %2, align 8
  %3 = load ptr, ptr %2, align 8
  %4 = ptrtoint ptr %3 to i64
  ret i64 %4
}

; Function Attrs: inlinehint nounwind uwtable
define internal ptr @DatumGetPointer(i64 noundef %0) #4 {
  %2 = alloca i64, align 8
  store i64 %0, ptr %2, align 8
  %3 = load i64, ptr %2, align 8
  %4 = inttoptr i64 %3 to ptr
  ret ptr %4
}

; Function Attrs: nounwind uwtable
define dso_local i64 @gtsvector_same(ptr noundef %0) #0 {
  %2 = alloca ptr, align 8
  %3 = alloca ptr, align 8
  %4 = alloca ptr, align 8
  %5 = alloca ptr, align 8
  %6 = alloca i32, align 4
  %7 = alloca i32, align 4
  %8 = alloca ptr, align 8
  %9 = alloca ptr, align 8
  %10 = alloca i32, align 4
  %11 = alloca i32, align 4
  %12 = alloca ptr, align 8
  %13 = alloca ptr, align 8
  %14 = alloca i32, align 4
  store ptr %0, ptr %2, align 8
  call void @llvm.lifetime.start.p0(i64 8, ptr %3) #9
  %15 = load ptr, ptr %2, align 8
  %16 = getelementptr inbounds nuw %struct.FunctionCallInfoBaseData, ptr %15, i32 0, i32 6
  %17 = getelementptr inbounds [0 x %struct.NullableDatum], ptr %16, i64 0, i64 0
  %18 = getelementptr inbounds nuw %struct.NullableDatum, ptr %17, i32 0, i32 0
  %19 = load i64, ptr %18, align 8
  %20 = call ptr @DatumGetPointer(i64 noundef %19)
  store ptr %20, ptr %3, align 8
  call void @llvm.lifetime.start.p0(i64 8, ptr %4) #9
  %21 = load ptr, ptr %2, align 8
  %22 = getelementptr inbounds nuw %struct.FunctionCallInfoBaseData, ptr %21, i32 0, i32 6
  %23 = getelementptr inbounds [0 x %struct.NullableDatum], ptr %22, i64 0, i64 1
  %24 = getelementptr inbounds nuw %struct.NullableDatum, ptr %23, i32 0, i32 0
  %25 = load i64, ptr %24, align 8
  %26 = call ptr @DatumGetPointer(i64 noundef %25)
  store ptr %26, ptr %4, align 8
  call void @llvm.lifetime.start.p0(i64 8, ptr %5) #9
  %27 = load ptr, ptr %2, align 8
  %28 = getelementptr inbounds nuw %struct.FunctionCallInfoBaseData, ptr %27, i32 0, i32 6
  %29 = getelementptr inbounds [0 x %struct.NullableDatum], ptr %28, i64 0, i64 2
  %30 = getelementptr inbounds nuw %struct.NullableDatum, ptr %29, i32 0, i32 0
  %31 = load i64, ptr %30, align 8
  %32 = call ptr @DatumGetPointer(i64 noundef %31)
  store ptr %32, ptr %5, align 8
  call void @llvm.lifetime.start.p0(i64 4, ptr %6) #9
  %33 = load ptr, ptr %2, align 8
  %34 = getelementptr inbounds nuw %struct.FunctionCallInfoBaseData, ptr %33, i32 0, i32 0
  %35 = load ptr, ptr %34, align 8
  %36 = call zeroext i1 @has_fn_opclass_options(ptr noundef %35)
  br i1 %36, label %37, label %44

37:                                               ; preds = %1
  %38 = load ptr, ptr %2, align 8
  %39 = getelementptr inbounds nuw %struct.FunctionCallInfoBaseData, ptr %38, i32 0, i32 0
  %40 = load ptr, ptr %39, align 8
  %41 = call ptr @get_fn_opclass_options(ptr noundef %40)
  %42 = getelementptr inbounds nuw %struct.GistTsVectorOptions, ptr %41, i32 0, i32 1
  %43 = load i32, ptr %42, align 4
  br label %45

44:                                               ; preds = %1
  br label %45

45:                                               ; preds = %44, %37
  %46 = phi i32 [ %43, %37 ], [ 124, %44 ]
  store i32 %46, ptr %6, align 4
  %47 = load ptr, ptr %3, align 8
  %48 = getelementptr inbounds nuw %struct.SignTSVector, ptr %47, i32 0, i32 1
  %49 = load i32, ptr %48, align 4
  %50 = and i32 %49, 2
  %51 = icmp ne i32 %50, 0
  br i1 %51, label %52, label %116

52:                                               ; preds = %45
  %53 = load ptr, ptr %3, align 8
  %54 = getelementptr inbounds nuw %struct.SignTSVector, ptr %53, i32 0, i32 1
  %55 = load i32, ptr %54, align 4
  %56 = and i32 %55, 4
  %57 = icmp ne i32 %56, 0
  br i1 %57, label %58, label %66

58:                                               ; preds = %52
  %59 = load ptr, ptr %4, align 8
  %60 = getelementptr inbounds nuw %struct.SignTSVector, ptr %59, i32 0, i32 1
  %61 = load i32, ptr %60, align 4
  %62 = and i32 %61, 4
  %63 = icmp ne i32 %62, 0
  br i1 %63, label %64, label %66

64:                                               ; preds = %58
  %65 = load ptr, ptr %5, align 8
  store i8 1, ptr %65, align 1
  br label %115

66:                                               ; preds = %58, %52
  %67 = load ptr, ptr %3, align 8
  %68 = getelementptr inbounds nuw %struct.SignTSVector, ptr %67, i32 0, i32 1
  %69 = load i32, ptr %68, align 4
  %70 = and i32 %69, 4
  %71 = icmp ne i32 %70, 0
  br i1 %71, label %72, label %74

72:                                               ; preds = %66
  %73 = load ptr, ptr %5, align 8
  store i8 0, ptr %73, align 1
  br label %114

74:                                               ; preds = %66
  %75 = load ptr, ptr %4, align 8
  %76 = getelementptr inbounds nuw %struct.SignTSVector, ptr %75, i32 0, i32 1
  %77 = load i32, ptr %76, align 4
  %78 = and i32 %77, 4
  %79 = icmp ne i32 %78, 0
  br i1 %79, label %80, label %82

80:                                               ; preds = %74
  %81 = load ptr, ptr %5, align 8
  store i8 0, ptr %81, align 1
  br label %113

82:                                               ; preds = %74
  call void @llvm.lifetime.start.p0(i64 4, ptr %7) #9
  call void @llvm.lifetime.start.p0(i64 8, ptr %8) #9
  %83 = load ptr, ptr %3, align 8
  %84 = getelementptr inbounds nuw i8, ptr %83, i64 8
  store ptr %84, ptr %8, align 8
  call void @llvm.lifetime.start.p0(i64 8, ptr %9) #9
  %85 = load ptr, ptr %4, align 8
  %86 = getelementptr inbounds nuw i8, ptr %85, i64 8
  store ptr %86, ptr %9, align 8
  %87 = load ptr, ptr %5, align 8
  store i8 1, ptr %87, align 1
  store i32 0, ptr %7, align 4
  br label %88

88:                                               ; preds = %109, %82
  %89 = load i32, ptr %7, align 4
  %90 = load i32, ptr %6, align 4
  %91 = icmp slt i32 %89, %90
  br i1 %91, label %92, label %112

92:                                               ; preds = %88
  %93 = load ptr, ptr %8, align 8
  %94 = load i32, ptr %7, align 4
  %95 = sext i32 %94 to i64
  %96 = getelementptr inbounds i8, ptr %93, i64 %95
  %97 = load i8, ptr %96, align 1
  %98 = sext i8 %97 to i32
  %99 = load ptr, ptr %9, align 8
  %100 = load i32, ptr %7, align 4
  %101 = sext i32 %100 to i64
  %102 = getelementptr inbounds i8, ptr %99, i64 %101
  %103 = load i8, ptr %102, align 1
  %104 = sext i8 %103 to i32
  %105 = icmp ne i32 %98, %104
  br i1 %105, label %106, label %108

106:                                              ; preds = %92
  %107 = load ptr, ptr %5, align 8
  store i8 0, ptr %107, align 1
  br label %112

108:                                              ; preds = %92
  br label %109

109:                                              ; preds = %108
  %110 = load i32, ptr %7, align 4
  %111 = add i32 %110, 1
  store i32 %111, ptr %7, align 4
  br label %88, !llvm.loop !17

112:                                              ; preds = %106, %88
  call void @llvm.lifetime.end.p0(i64 8, ptr %9) #9
  call void @llvm.lifetime.end.p0(i64 8, ptr %8) #9
  call void @llvm.lifetime.end.p0(i64 4, ptr %7) #9
  br label %113

113:                                              ; preds = %112, %80
  br label %114

114:                                              ; preds = %113, %72
  br label %115

115:                                              ; preds = %114, %64
  br label %170

116:                                              ; preds = %45
  call void @llvm.lifetime.start.p0(i64 4, ptr %10) #9
  %117 = load ptr, ptr %3, align 8
  %118 = getelementptr inbounds nuw %struct.anon, ptr %117, i32 0, i32 0
  %119 = load i32, ptr %118, align 4
  %120 = lshr i32 %119, 2
  %121 = and i32 %120, 1073741823
  %122 = zext i32 %121 to i64
  %123 = sub i64 %122, 8
  %124 = udiv i64 %123, 4
  %125 = trunc i64 %124 to i32
  store i32 %125, ptr %10, align 4
  call void @llvm.lifetime.start.p0(i64 4, ptr %11) #9
  %126 = load ptr, ptr %4, align 8
  %127 = getelementptr inbounds nuw %struct.anon, ptr %126, i32 0, i32 0
  %128 = load i32, ptr %127, align 4
  %129 = lshr i32 %128, 2
  %130 = and i32 %129, 1073741823
  %131 = zext i32 %130 to i64
  %132 = sub i64 %131, 8
  %133 = udiv i64 %132, 4
  %134 = trunc i64 %133 to i32
  store i32 %134, ptr %11, align 4
  %135 = load i32, ptr %10, align 4
  %136 = load i32, ptr %11, align 4
  %137 = icmp ne i32 %135, %136
  br i1 %137, label %138, label %140

138:                                              ; preds = %116
  %139 = load ptr, ptr %5, align 8
  store i8 0, ptr %139, align 1
  br label %169

140:                                              ; preds = %116
  call void @llvm.lifetime.start.p0(i64 8, ptr %12) #9
  %141 = load ptr, ptr %3, align 8
  %142 = getelementptr inbounds nuw i8, ptr %141, i64 8
  store ptr %142, ptr %12, align 8
  call void @llvm.lifetime.start.p0(i64 8, ptr %13) #9
  %143 = load ptr, ptr %4, align 8
  %144 = getelementptr inbounds nuw i8, ptr %143, i64 8
  store ptr %144, ptr %13, align 8
  call void @llvm.lifetime.start.p0(i64 4, ptr %14) #9
  %145 = load ptr, ptr %5, align 8
  store i8 1, ptr %145, align 1
  store i32 0, ptr %14, align 4
  br label %146

146:                                              ; preds = %165, %140
  %147 = load i32, ptr %14, align 4
  %148 = load i32, ptr %10, align 4
  %149 = icmp slt i32 %147, %148
  br i1 %149, label %150, label %168

150:                                              ; preds = %146
  %151 = load ptr, ptr %12, align 8
  %152 = load i32, ptr %14, align 4
  %153 = sext i32 %152 to i64
  %154 = getelementptr inbounds i32, ptr %151, i64 %153
  %155 = load i32, ptr %154, align 4
  %156 = load ptr, ptr %13, align 8
  %157 = load i32, ptr %14, align 4
  %158 = sext i32 %157 to i64
  %159 = getelementptr inbounds i32, ptr %156, i64 %158
  %160 = load i32, ptr %159, align 4
  %161 = icmp ne i32 %155, %160
  br i1 %161, label %162, label %164

162:                                              ; preds = %150
  %163 = load ptr, ptr %5, align 8
  store i8 0, ptr %163, align 1
  br label %168

164:                                              ; preds = %150
  br label %165

165:                                              ; preds = %164
  %166 = load i32, ptr %14, align 4
  %167 = add i32 %166, 1
  store i32 %167, ptr %14, align 4
  br label %146, !llvm.loop !18

168:                                              ; preds = %162, %146
  call void @llvm.lifetime.end.p0(i64 4, ptr %14) #9
  call void @llvm.lifetime.end.p0(i64 8, ptr %13) #9
  call void @llvm.lifetime.end.p0(i64 8, ptr %12) #9
  br label %169

169:                                              ; preds = %168, %138
  call void @llvm.lifetime.end.p0(i64 4, ptr %11) #9
  call void @llvm.lifetime.end.p0(i64 4, ptr %10) #9
  br label %170

170:                                              ; preds = %169, %115
  %171 = load ptr, ptr %5, align 8
  %172 = call i64 @PointerGetDatum(ptr noundef %171)
  call void @llvm.lifetime.end.p0(i64 4, ptr %6) #9
  call void @llvm.lifetime.end.p0(i64 8, ptr %5) #9
  call void @llvm.lifetime.end.p0(i64 8, ptr %4) #9
  call void @llvm.lifetime.end.p0(i64 8, ptr %3) #9
  ret i64 %172
}