; Function Attrs: nounwind uwtable
define dso_local i64 @gtsvector_same(ptr noundef readonly captures(none) %0) local_unnamed_addr #4 {
  %2 = getelementptr inbounds nuw i8, ptr %0, i64 32
  %3 = load i64, ptr %2, align 8
  %4 = inttoptr i64 %3 to ptr
  %5 = getelementptr inbounds nuw i8, ptr %0, i64 48
  %6 = load i64, ptr %5, align 8
  %7 = inttoptr i64 %6 to ptr
  %8 = getelementptr inbounds nuw i8, ptr %0, i64 64
  %9 = load i64, ptr %8, align 8
  %10 = inttoptr i64 %9 to ptr
  %11 = load ptr, ptr %0, align 8
  %12 = tail call zeroext i1 @has_fn_opclass_options(ptr noundef %11) #13
  br i1 %12, label %13, label %18

13:                                               ; preds = %1
  %14 = load ptr, ptr %0, align 8
  %15 = tail call ptr @get_fn_opclass_options(ptr noundef %14) #13
  %16 = getelementptr inbounds nuw i8, ptr %15, i64 4
  %17 = load i32, ptr %16, align 4
  br label %18

18:                                               ; preds = %1, %13
  %19 = phi i32 [ %17, %13 ], [ 124, %1 ]
  %20 = getelementptr inbounds nuw i8, ptr %4, i64 4
  %21 = load i32, ptr %20, align 4
  %22 = and i32 %21, 2
  %.not = icmp eq i32 %22, 0
  br i1 %.not, label %39, label %23

23:                                               ; preds = %18
  %24 = and i32 %21, 4
  %.not44 = icmp eq i32 %24, 0
  %25 = getelementptr inbounds nuw i8, ptr %7, i64 4
  %26 = load i32, ptr %25, align 4
  %27 = and i32 %26, 4
  br i1 %.not44, label %29, label %28

28:                                               ; preds = %23
  %.lobit = lshr exact i32 %27, 2
  %. = trunc nuw nsw i32 %.lobit to i8
  br label %.loopexit.sink.split

29:                                               ; preds = %23
  %.not47.not = icmp eq i32 %27, 0
  br i1 %.not47.not, label %30, label %.loopexit.sink.split

30:                                               ; preds = %29
  %31 = getelementptr inbounds nuw i8, ptr %4, i64 8
  %32 = getelementptr inbounds nuw i8, ptr %7, i64 8
  store i8 1, ptr %10, align 1
  %33 = icmp sgt i32 %19, 0
  br i1 %33, label %.lr.ph.preheader, label %.loopexit

.lr.ph.preheader:                                 ; preds = %30
  %wide.trip.count = zext nneg i32 %19 to i64
  br label %.lr.ph

34:                                               ; preds = %.lr.ph
  %indvars.iv.next = add nuw nsw i64 %indvars.iv, 1
  %exitcond.not = icmp eq i64 %indvars.iv.next, %wide.trip.count
  br i1 %exitcond.not, label %.loopexit, label %.lr.ph, !llvm.loop !17

.lr.ph:                                           ; preds = %.lr.ph.preheader, %34
  %indvars.iv = phi i64 [ 0, %.lr.ph.preheader ], [ %indvars.iv.next, %34 ]
  %35 = getelementptr inbounds nuw i8, ptr %31, i64 %indvars.iv
  %36 = load i8, ptr %35, align 1
  %37 = getelementptr inbounds nuw i8, ptr %32, i64 %indvars.iv
  %38 = load i8, ptr %37, align 1
  %.not48 = icmp eq i8 %36, %38
  br i1 %.not48, label %34, label %.loopexit.sink.split

39:                                               ; preds = %18
  %40 = load i32, ptr %4, align 4
  %41 = lshr i32 %40, 2
  %42 = zext nneg i32 %41 to i64
  %43 = add nuw nsw i64 %42, 17179869176
  %44 = lshr i64 %43, 2
  %45 = trunc i64 %44 to i32
  %46 = load i32, ptr %7, align 4
  %47 = lshr i32 %46, 2
  %48 = zext nneg i32 %47 to i64
  %49 = add nuw nsw i64 %48, 17179869176
  %50 = lshr i64 %49, 2
  %51 = trunc i64 %50 to i32
  %.not42 = icmp eq i32 %45, %51
  br i1 %.not42, label %52, label %.loopexit.sink.split

52:                                               ; preds = %39
  %53 = getelementptr inbounds nuw i8, ptr %4, i64 8
  %54 = getelementptr inbounds nuw i8, ptr %7, i64 8
  store i8 1, ptr %10, align 1
  %55 = icmp sgt i32 %45, 0
  br i1 %55, label %.lr.ph52.preheader, label %.loopexit

.lr.ph52.preheader:                               ; preds = %52
  %wide.trip.count58 = and i64 %44, 2147483647
  br label %.lr.ph52

56:                                               ; preds = %.lr.ph52
  %indvars.iv.next56 = add nuw nsw i64 %indvars.iv55, 1
  %exitcond59.not = icmp eq i64 %indvars.iv.next56, %wide.trip.count58
  br i1 %exitcond59.not, label %.loopexit, label %.lr.ph52, !llvm.loop !18

.lr.ph52:                                         ; preds = %.lr.ph52.preheader, %56
  %indvars.iv55 = phi i64 [ 0, %.lr.ph52.preheader ], [ %indvars.iv.next56, %56 ]
  %57 = getelementptr inbounds nuw i32, ptr %53, i64 %indvars.iv55
  %58 = load i32, ptr %57, align 4
  %59 = getelementptr inbounds nuw i32, ptr %54, i64 %indvars.iv55
  %60 = load i32, ptr %59, align 4
  %.not43 = icmp eq i32 %58, %60
  br i1 %.not43, label %56, label %.loopexit.sink.split

.loopexit.sink.split:                             ; preds = %.lr.ph, %.lr.ph52, %39, %29, %28
  %.sink = phi i8 [ %., %28 ], [ 0, %29 ], [ 0, %39 ], [ 0, %.lr.ph52 ], [ 0, %.lr.ph ]
  store i8 %.sink, ptr %10, align 1
  br label %.loopexit

.loopexit:                                        ; preds = %34, %56, %.loopexit.sink.split, %30, %52
  ret i64 %9
}